; Function Attrs: nounwind uwtable
define hidden range(i32 -2147483648, 2) i32 @X11_WaitEventTimeout(ptr noundef %0, i64 noundef %1) local_unnamed_addr #1 {
  %3 = alloca %union._XEvent, align 8
  %4 = getelementptr inbounds nuw i8, ptr %0, i64 1656
  %5 = load ptr, ptr %4, align 8
  call void @llvm.lifetime.start.p0(i64 192, ptr nonnull %3) #12
  %6 = load ptr, ptr %5, align 8
  call void @llvm.memset.p0.i64(ptr noundef nonnull align 8 dereferenceable(192) %3, i8 0, i64 192, i1 false)
  %7 = load ptr, ptr @X11_XFlush, align 8
  %8 = tail call i32 %7(ptr noundef %6) #12
  %9 = load ptr, ptr @X11_XCheckIfEvent, align 8
  %10 = call i32 %9(ptr noundef %6, ptr noundef nonnull %3, ptr noundef nonnull @isAnyEvent, ptr noundef null) #12
  %.not.i.not = icmp eq i32 %10, 0
  br i1 %.not.i.not, label %11, label %27

11:                                               ; preds = %2
  %12 = icmp eq i64 %1, 0
  br i1 %12, label %.thread, label %13

13:                                               ; preds = %11
  %14 = getelementptr inbounds nuw i8, ptr %6, i64 16
  %15 = load i32, ptr %14, align 8
  %16 = call i32 @SDL_IOReady(i32 noundef %15, i32 noundef 5, i64 noundef %1) #12
  %17 = icmp sgt i32 %16, 0
  br i1 %17, label %24, label %18

18:                                               ; preds = %13
  %19 = icmp eq i32 %16, 0
  br i1 %19, label %.thread, label %20

20:                                               ; preds = %18
  %21 = tail call ptr @__errno_location() #13
  %22 = load i32, ptr %21, align 4
  %23 = icmp eq i32 %22, 4
  %.17 = select i1 %23, i32 1, i32 %16
  br label %.thread

24:                                               ; preds = %13
  %25 = load ptr, ptr @X11_XCheckIfEvent, align 8
  %26 = call i32 %25(ptr noundef nonnull %6, ptr noundef nonnull %3, ptr noundef nonnull @isAnyEvent, ptr noundef null) #12
  %.not.i18.not = icmp eq i32 %26, 0
  br i1 %.not.i18.not, label %.thread, label %27

27:                                               ; preds = %24, %2
  call fastcc void @X11_DispatchEvent(ptr noundef nonnull %0, ptr noundef %3)
  call void @SDL_DBus_PumpEvents() #12
  br label %.thread

.thread:                                          ; preds = %20, %18, %11, %24, %27
  %.0 = phi i32 [ 1, %27 ], [ 1, %24 ], [ 0, %11 ], [ %.17, %20 ], [ 0, %18 ]
  call void @llvm.lifetime.end.p0(i64 192, ptr nonnull %3) #12
  ret i32 %.0
}